; Function Attrs: mustprogress nofree nounwind willreturn uwtable
define range(i32 -32, 1) i32 @pmix_bfrops_base_copy_dkstats(ptr noundef writeonly captures(none) %0, ptr noundef readonly captures(none) %1, i16 noundef zeroext %2) local_unnamed_addr #4 {
  %calloc.i.i = tail call dereferenceable_or_null(96) ptr @calloc(i64 1, i64 96)
  %4 = icmp eq ptr %calloc.i.i, null
  br i1 %4, label %pmix_bfrops_base_tma_copy_dkstats.exit, label %5, !prof !43

5:                                                ; preds = %3
  store ptr %calloc.i.i, ptr %0, align 8, !tbaa !15
  %6 = load ptr, ptr %1, align 8, !tbaa !185
  %.not.i.i = icmp eq ptr %6, null
  br i1 %.not.i.i, label %pmix_bfrops_base_tma_populate_dkstats.exit.i, label %7

7:                                                ; preds = %5
  %8 = tail call noalias ptr @strdup(ptr noundef nonnull readonly %6) #23
  store ptr %8, ptr %calloc.i.i, align 8, !tbaa !185
  br label %pmix_bfrops_base_tma_populate_dkstats.exit.i

pmix_bfrops_base_tma_populate_dkstats.exit.i:     ; preds = %7, %5
  %9 = getelementptr inbounds nuw i8, ptr %1, i64 8
  %10 = load i64, ptr %9, align 8, !tbaa !187
  %11 = getelementptr inbounds nuw i8, ptr %calloc.i.i, i64 8
  store i64 %10, ptr %11, align 8, !tbaa !187
  %12 = getelementptr inbounds nuw i8, ptr %1, i64 16
  %13 = load i64, ptr %12, align 8, !tbaa !188
  %14 = getelementptr inbounds nuw i8, ptr %calloc.i.i, i64 16
  store i64 %13, ptr %14, align 8, !tbaa !188
  %15 = getelementptr inbounds nuw i8, ptr %1, i64 24
  %16 = load i64, ptr %15, align 8, !tbaa !189
  %17 = getelementptr inbounds nuw i8, ptr %calloc.i.i, i64 24
  store i64 %16, ptr %17, align 8, !tbaa !189
  %18 = getelementptr inbounds nuw i8, ptr %1, i64 32
  %19 = load i64, ptr %18, align 8, !tbaa !190
  %20 = getelementptr inbounds nuw i8, ptr %calloc.i.i, i64 32
  store i64 %19, ptr %20, align 8, !tbaa !190
  %21 = getelementptr inbounds nuw i8, ptr %1, i64 40
  %22 = load i64, ptr %21, align 8, !tbaa !191
  %23 = getelementptr inbounds nuw i8, ptr %calloc.i.i, i64 40
  store i64 %22, ptr %23, align 8, !tbaa !191
  %24 = getelementptr inbounds nuw i8, ptr %1, i64 48
  %25 = load i64, ptr %24, align 8, !tbaa !192
  %26 = getelementptr inbounds nuw i8, ptr %calloc.i.i, i64 48
  store i64 %25, ptr %26, align 8, !tbaa !192
  %27 = getelementptr inbounds nuw i8, ptr %1, i64 56
  %28 = load i64, ptr %27, align 8, !tbaa !193
  %29 = getelementptr inbounds nuw i8, ptr %calloc.i.i, i64 56
  store i64 %28, ptr %29, align 8, !tbaa !193
  %30 = getelementptr inbounds nuw i8, ptr %1, i64 64
  %31 = load i64, ptr %30, align 8, !tbaa !194
  %32 = getelementptr inbounds nuw i8, ptr %calloc.i.i, i64 64
  store i64 %31, ptr %32, align 8, !tbaa !194
  %33 = getelementptr inbounds nuw i8, ptr %1, i64 72
  %34 = load i64, ptr %33, align 8, !tbaa !195
  %35 = getelementptr inbounds nuw i8, ptr %calloc.i.i, i64 72
  store i64 %34, ptr %35, align 8, !tbaa !195
  %36 = getelementptr inbounds nuw i8, ptr %1, i64 80
  %37 = load i64, ptr %36, align 8, !tbaa !196
  %38 = getelementptr inbounds nuw i8, ptr %calloc.i.i, i64 80
  store i64 %37, ptr %38, align 8, !tbaa !196
  %39 = getelementptr inbounds nuw i8, ptr %1, i64 88
  %40 = load i64, ptr %39, align 8, !tbaa !197
  %41 = getelementptr inbounds nuw i8, ptr %calloc.i.i, i64 88
  store i64 %40, ptr %41, align 8, !tbaa !197
  br label %pmix_bfrops_base_tma_copy_dkstats.exit

pmix_bfrops_base_tma_copy_dkstats.exit:           ; preds = %3, %pmix_bfrops_base_tma_populate_dkstats.exit.i
  %.0.i = phi i32 [ 0, %pmix_bfrops_base_tma_populate_dkstats.exit.i ], [ -32, %3 ]
  ret i32 %.0.i
}